target datalayout = "e-m:e-p270:32:32-p271:32:32-p272:64:64-i64:64-i128:128-f80:128-n8:16:32:64-S128"
target triple = "x86_64-pc-linux-gnu"

%struct.SDL_AudioDriver = type { ptr, ptr, %struct.SDL_AudioDriverImpl, ptr, ptr, ptr, i32, i32, %struct.SDL_PendingAudioDeviceEvent, ptr, %struct.SDL_AtomicInt, %struct.SDL_AtomicInt, %struct.SDL_AtomicInt }
%struct.SDL_AudioDriverImpl = type { ptr, ptr, ptr, ptr, ptr, ptr, ptr, ptr, ptr, ptr, ptr, ptr, ptr, ptr, i8, i8, i8, i8 }
%struct.SDL_PendingAudioDeviceEvent = type { i32, i32, ptr }
%struct.SDL_AtomicInt = type { i32 }

@current_audio = internal global %struct.SDL_AudioDriver zeroinitializer, align 8

; Function Attrs: nounwind uwtable
define hidden void @SDL_QuitAudio() #0 {
  %1 = alloca ptr, align 8
  %2 = alloca ptr, align 8
  %3 = alloca ptr, align 8
  %4 = alloca ptr, align 8
  %5 = load ptr, ptr @current_audio, align 8
  %6 = icmp ne ptr %5, null
  br i1 %6, label %8, label %7

7:                                                ; preds = %0
  br label %41

8:                                                ; preds = %0
  %9 = load ptr, ptr getelementptr inbounds nuw (%struct.SDL_AudioDriverImpl, ptr getelementptr inbounds nuw (%struct.SDL_AudioDriver, ptr @current_audio, i32 0, i32 2), i32 0, i32 12), align 8
  call void %9()
  br label %10

10:                                               ; preds = %13, %8
  %11 = load ptr, ptr getelementptr inbounds nuw (%struct.SDL_AudioDriver, ptr @current_audio, i32 0, i32 5), align 8
  %12 = icmp ne ptr %11, null
  br i1 %12, label %13, label %15

13:                                               ; preds = %10
  %14 = load ptr, ptr getelementptr inbounds nuw (%struct.SDL_AudioDriver, ptr @current_audio, i32 0, i32 5), align 8
  call void @SDL_DestroyAudioStream_REAL(ptr noundef %14)
  br label %10, !llvm.loop !13

15:                                               ; preds = %10
  %16 = load ptr, ptr getelementptr inbounds nuw (%struct.SDL_AudioDriver, ptr @current_audio, i32 0, i32 3), align 8
  call void @SDL_LockRWLockForWriting_REAL(ptr noundef %16)
  %17 = call i32 @SDL_SetAtomicInt_REAL(ptr noundef getelementptr inbounds nuw (%struct.SDL_AudioDriver, ptr @current_audio, i32 0, i32 12), i32 noundef 1)
  call void @llvm.lifetime.start.p0(i64 8, ptr %1) #6
  %18 = load ptr, ptr getelementptr inbounds nuw (%struct.SDL_AudioDriver, ptr @current_audio, i32 0, i32 4), align 8
  store ptr %18, ptr %1, align 8
  store ptr null, ptr getelementptr inbounds nuw (%struct.SDL_AudioDriver, ptr @current_audio, i32 0, i32 4), align 8
  call void @llvm.lifetime.start.p0(i64 8, ptr %2) #6
  %19 = load ptr, ptr getelementptr inbounds nuw (%struct.SDL_PendingAudioDeviceEvent, ptr getelementptr inbounds nuw (%struct.SDL_AudioDriver, ptr @current_audio, i32 0, i32 8), i32 0, i32 2), align 8
  store ptr %19, ptr %2, align 8
  store ptr null, ptr getelementptr inbounds nuw (%struct.SDL_PendingAudioDeviceEvent, ptr getelementptr inbounds nuw (%struct.SDL_AudioDriver, ptr @current_audio, i32 0, i32 8), i32 0, i32 2), align 8
  %20 = call i32 @SDL_SetAtomicInt_REAL(ptr noundef getelementptr inbounds nuw (%struct.SDL_AudioDriver, ptr @current_audio, i32 0, i32 10), i32 noundef 0)
  %21 = call i32 @SDL_SetAtomicInt_REAL(ptr noundef getelementptr inbounds nuw (%struct.SDL_AudioDriver, ptr @current_audio, i32 0, i32 11), i32 noundef 0)
  %22 = load ptr, ptr getelementptr inbounds nuw (%struct.SDL_AudioDriver, ptr @current_audio, i32 0, i32 3), align 8
  call void @SDL_UnlockRWLock_REAL(ptr noundef %22)
  call void @llvm.lifetime.start.p0(i64 8, ptr %3) #6
  store ptr null, ptr %3, align 8
  call void @llvm.lifetime.start.p0(i64 8, ptr %4) #6
  %23 = load ptr, ptr %2, align 8
  store ptr %23, ptr %4, align 8
  br label %24

24:                                               ; preds = %33, %15
  %25 = load ptr, ptr %4, align 8
  %26 = icmp ne ptr %25, null
  br i1 %26, label %28, label %27

27:                                               ; preds = %24
  call void @llvm.lifetime.end.p0(i64 8, ptr %4) #6
  br label %35

28:                                               ; preds = %24
  %29 = load ptr, ptr %4, align 8
  %30 = getelementptr inbounds nuw %struct.SDL_PendingAudioDeviceEvent, ptr %29, i32 0, i32 2
  %31 = load ptr, ptr %30, align 8
  store ptr %31, ptr %3, align 8
  %32 = load ptr, ptr %4, align 8
  call void @SDL_free_REAL(ptr noundef %32)
  br label %33

33:                                               ; preds = %28
  %34 = load ptr, ptr %3, align 8
  store ptr %34, ptr %4, align 8
  br label %24, !llvm.loop !14

35:                                               ; preds = %27
  %36 = load ptr, ptr %1, align 8
  %37 = call zeroext i1 @SDL_IterateHashTable(ptr noundef %36, ptr noundef @DestroyOnePhysicalAudioDevice, ptr noundef null)
  %38 = load ptr, ptr getelementptr inbounds nuw (%struct.SDL_AudioDriverImpl, ptr getelementptr inbounds nuw (%struct.SDL_AudioDriver, ptr @current_audio, i32 0, i32 2), i32 0, i32 13), align 8
  call void %38()
  %39 = load ptr, ptr getelementptr inbounds nuw (%struct.SDL_AudioDriver, ptr @current_audio, i32 0, i32 3), align 8
  call void @SDL_DestroyRWLock_REAL(ptr noundef %39)
  %40 = load ptr, ptr %1, align 8
  call void @SDL_DestroyHashTable(ptr noundef %40)
  call void @llvm.memset.p0.i64(ptr align 8 @current_audio, i8 0, i64 208, i1 false)
  call void @llvm.lifetime.end.p0(i64 8, ptr %3) #6
  call void @llvm.lifetime.end.p0(i64 8, ptr %2) #6
  call void @llvm.lifetime.end.p0(i64 8, ptr %1) #6
  br label %41

41:                                               ; preds = %35, %7
  ret void
}