; Function Attrs: nounwind uwtable
define hidden void @SDL_QuitAudio() local_unnamed_addr #0 {
  %1 = load ptr, ptr @current_audio, align 8
  %.not = icmp eq ptr %1, null
  br i1 %.not, label %19, label %2

2:                                                ; preds = %0
  %3 = load ptr, ptr getelementptr inbounds nuw (i8, ptr @current_audio, i64 112), align 8
  tail call void %3() #14
  %4 = load ptr, ptr getelementptr inbounds nuw (i8, ptr @current_audio, i64 152), align 8
  %.not810 = icmp eq ptr %4, null
  br i1 %.not810, label %._crit_edge, label %.lr.ph

.lr.ph:                                           ; preds = %2, %.lr.ph
  %5 = phi ptr [ %6, %.lr.ph ], [ %4, %2 ]
  tail call void @SDL_DestroyAudioStream_REAL(ptr noundef nonnull %5) #14
  %6 = load ptr, ptr getelementptr inbounds nuw (i8, ptr @current_audio, i64 152), align 8
  %.not8 = icmp eq ptr %6, null
  br i1 %.not8, label %._crit_edge, label %.lr.ph, !llvm.loop !12

._crit_edge:                                      ; preds = %.lr.ph, %2
  %7 = load ptr, ptr getelementptr inbounds nuw (i8, ptr @current_audio, i64 136), align 8
  tail call void @SDL_LockRWLockForWriting_REAL(ptr noundef %7) #14
  %8 = tail call i32 @SDL_SetAtomicInt_REAL(ptr noundef nonnull getelementptr inbounds nuw (i8, ptr @current_audio, i64 200), i32 noundef 1) #14
  %9 = load ptr, ptr getelementptr inbounds nuw (i8, ptr @current_audio, i64 144), align 8
  store ptr null, ptr getelementptr inbounds nuw (i8, ptr @current_audio, i64 144), align 8
  %10 = load ptr, ptr getelementptr inbounds nuw (i8, ptr @current_audio, i64 176), align 8
  store ptr null, ptr getelementptr inbounds nuw (i8, ptr @current_audio, i64 176), align 8
  %11 = tail call i32 @SDL_SetAtomicInt_REAL(ptr noundef nonnull getelementptr inbounds nuw (i8, ptr @current_audio, i64 192), i32 noundef 0) #14
  %12 = tail call i32 @SDL_SetAtomicInt_REAL(ptr noundef nonnull getelementptr inbounds nuw (i8, ptr @current_audio, i64 196), i32 noundef 0) #14
  %13 = load ptr, ptr getelementptr inbounds nuw (i8, ptr @current_audio, i64 136), align 8
  tail call void @SDL_UnlockRWLock_REAL(ptr noundef %13) #14
  %.not911 = icmp eq ptr %10, null
  br i1 %.not911, label %._crit_edge15, label %.lr.ph14

._crit_edge15:                                    ; preds = %.lr.ph14, %._crit_edge
  %14 = tail call zeroext i1 @SDL_IterateHashTable(ptr noundef %9, ptr noundef nonnull @DestroyOnePhysicalAudioDevice, ptr noundef null) #14
  %15 = load ptr, ptr getelementptr inbounds nuw (i8, ptr @current_audio, i64 120), align 8
  tail call void %15() #14
  %16 = load ptr, ptr getelementptr inbounds nuw (i8, ptr @current_audio, i64 136), align 8
  tail call void @SDL_DestroyRWLock_REAL(ptr noundef %16) #14
  tail call void @SDL_DestroyHashTable(ptr noundef %9) #14
  tail call void @llvm.memset.p0.i64(ptr noundef nonnull align 8 dereferenceable(208) @current_audio, i8 0, i64 208, i1 false)
  br label %19

.lr.ph14:                                         ; preds = %._crit_edge, %.lr.ph14
  %.012 = phi ptr [ %18, %.lr.ph14 ], [ %10, %._crit_edge ]
  %17 = getelementptr inbounds nuw i8, ptr %.012, i64 8
  %18 = load ptr, ptr %17, align 8
  tail call void @SDL_free_REAL(ptr noundef nonnull %.012) #14
  %.not9 = icmp eq ptr %18, null
  br i1 %.not9, label %._crit_edge15, label %.lr.ph14, !llvm.loop !13

19:                                               ; preds = %0, %._crit_edge15
  ret void
}